target datalayout = "e-m:e-p270:32:32-p271:32:32-p272:64:64-i64:64-i128:128-f80:128-n8:16:32:64-S128"
target triple = "x86_64-pc-linux-gnu"

%struct.slurm_msg = type { %struct.sockaddr_storage, ptr, i32, i32, i32, i8, i32, i8, i32, ptr, ptr, i32, ptr, ptr, i16, i8, i16, i16, %struct.forward, ptr, %struct.sockaddr_storage, ptr }
%struct.forward = type { %struct.slurm_node_alias_addrs_t, i16, i16, ptr, i32, i16, i16 }
%struct.slurm_node_alias_addrs_t = type { i64, ptr, ptr, i32, ptr }
%struct.sockaddr_storage = type { i16, [118 x i8], i64 }
%struct.return_code_msg = type { i32 }

@working_cluster_rec = external global ptr, align 8

; Function Attrs: nounwind uwtable
define dso_local i32 @slurm_load_burst_buffer_info(ptr noundef %0) #0 {
  %2 = alloca i32, align 4
  %3 = alloca ptr, align 8
  %4 = alloca i32, align 4
  %5 = alloca %struct.slurm_msg, align 8
  %6 = alloca %struct.slurm_msg, align 8
  %7 = alloca i32, align 4
  store ptr %0, ptr %3, align 8
  call void @llvm.lifetime.start.p0(i64 4, ptr %4) #5
  call void @llvm.lifetime.start.p0(i64 424, ptr %5) #5
  call void @llvm.lifetime.start.p0(i64 424, ptr %6) #5
  call void @slurm_msg_t_init(ptr noundef %5)
  call void @slurm_msg_t_init(ptr noundef %6)
  %8 = getelementptr inbounds nuw %struct.slurm_msg, ptr %5, i32 0, i32 16
  store i16 2037, ptr %8, align 4
  %9 = getelementptr inbounds nuw %struct.slurm_msg, ptr %5, i32 0, i32 13
  store ptr null, ptr %9, align 8
  %10 = load ptr, ptr @working_cluster_rec, align 8
  %11 = call i32 @slurm_send_recv_controller_msg(ptr noundef %5, ptr noundef %6, ptr noundef %10)
  %12 = icmp slt i32 %11, 0
  br i1 %12, label %13, label %14

13:                                               ; preds = %1
  store i32 -1, ptr %2, align 4
  store i32 1, ptr %7, align 4
  br label %48

14:                                               ; preds = %1
  %15 = getelementptr inbounds nuw %struct.slurm_msg, ptr %6, i32 0, i32 16
  %16 = load i16, ptr %15, align 4
  %17 = zext i16 %16 to i32
  switch i32 %17, label %42 [
    i32 2038, label %18
    i32 8001, label %22
  ]

18:                                               ; preds = %14
  %19 = getelementptr inbounds nuw %struct.slurm_msg, ptr %6, i32 0, i32 13
  %20 = load ptr, ptr %19, align 8
  %21 = load ptr, ptr %3, align 8
  store ptr %20, ptr %21, align 8
  br label %47

22:                                               ; preds = %14
  %23 = getelementptr inbounds nuw %struct.slurm_msg, ptr %6, i32 0, i32 13
  %24 = load ptr, ptr %23, align 8
  %25 = getelementptr inbounds nuw %struct.return_code_msg, ptr %24, i32 0, i32 0
  %26 = load i32, ptr %25, align 4
  store i32 %26, ptr %4, align 4
  %27 = getelementptr inbounds nuw %struct.slurm_msg, ptr %6, i32 0, i32 13
  %28 = load ptr, ptr %27, align 8
  call void @slurm_free_return_code_msg(ptr noundef %28)
  %29 = load i32, ptr %4, align 4
  %30 = icmp ne i32 %29, 0
  br i1 %30, label %31, label %40

31:                                               ; preds = %22
  br label %32

32:                                               ; preds = %31
  %33 = load i32, ptr %4, align 4
  %34 = call ptr @__errno_location() #6
  store i32 %33, ptr %34, align 4
  %35 = load i32, ptr %4, align 4
  %36 = icmp ne i32 %35, 0
  %37 = select i1 %36, i32 -1, i32 0
  store i32 %37, ptr %2, align 4
  store i32 1, ptr %7, align 4
  br label %48

38:                                               ; No predecessors!
  br label %39

39:                                               ; preds = %38
  br label %40

40:                                               ; preds = %39, %22
  %41 = load ptr, ptr %3, align 8
  store ptr null, ptr %41, align 8
  br label %47

42:                                               ; preds = %14
  br label %43

43:                                               ; preds = %42
  %44 = call ptr @__errno_location() #6
  store i32 1000, ptr %44, align 4
  store i32 -1, ptr %2, align 4
  store i32 1, ptr %7, align 4
  br label %48

45:                                               ; No predecessors!
  br label %46

46:                                               ; preds = %45
  br label %47

47:                                               ; preds = %46, %40, %18
  store i32 0, ptr %2, align 4
  store i32 1, ptr %7, align 4
  br label %48

48:                                               ; preds = %47, %43, %32, %13
  call void @llvm.lifetime.end.p0(i64 424, ptr %6) #5
  call void @llvm.lifetime.end.p0(i64 424, ptr %5) #5
  call void @llvm.lifetime.end.p0(i64 4, ptr %4) #5
  %49 = load i32, ptr %2, align 4
  ret i32 %49
}