; Function Attrs: nounwind uwtable
define dso_local range(i32 -1, 1) i32 @slurm_load_burst_buffer_info(ptr noundef writeonly captures(none) %0) local_unnamed_addr #0 {
  %2 = alloca %struct.slurm_msg, align 8
  %3 = alloca %struct.slurm_msg, align 8
  call void @llvm.lifetime.start.p0(i64 424, ptr nonnull %2) #9
  call void @llvm.lifetime.start.p0(i64 424, ptr nonnull %3) #9
  call void @slurm_msg_t_init(ptr noundef nonnull %2) #9
  call void @slurm_msg_t_init(ptr noundef nonnull %3) #9
  %4 = getelementptr inbounds nuw i8, ptr %2, i64 212
  store i16 2037, ptr %4, align 4
  %5 = getelementptr inbounds nuw i8, ptr %2, i64 200
  store ptr null, ptr %5, align 8
  %6 = load ptr, ptr @working_cluster_rec, align 8
  %7 = call i32 @slurm_send_recv_controller_msg(ptr noundef nonnull %2, ptr noundef nonnull %3, ptr noundef %6) #9
  %8 = icmp slt i32 %7, 0
  br i1 %8, label %24, label %9

9:                                                ; preds = %1
  %10 = getelementptr inbounds nuw i8, ptr %3, i64 212
  %11 = load i16, ptr %10, align 4
  switch i16 %11, label %21 [
    i16 2038, label %12
    i16 8001, label %15
  ]

12:                                               ; preds = %9
  %13 = getelementptr inbounds nuw i8, ptr %3, i64 200
  %14 = load ptr, ptr %13, align 8
  br label %23

15:                                               ; preds = %9
  %16 = getelementptr inbounds nuw i8, ptr %3, i64 200
  %17 = load ptr, ptr %16, align 8
  %18 = load i32, ptr %17, align 4
  call void @slurm_free_return_code_msg(ptr noundef nonnull %17) #9
  %.not = icmp eq i32 %18, 0
  br i1 %.not, label %23, label %19

19:                                               ; preds = %15
  %20 = tail call ptr @__errno_location() #10
  store i32 %18, ptr %20, align 4
  br label %24

21:                                               ; preds = %9
  %22 = tail call ptr @__errno_location() #10
  store i32 1000, ptr %22, align 4
  br label %24

23:                                               ; preds = %15, %12
  %storemerge = phi ptr [ %14, %12 ], [ null, %15 ]
  store ptr %storemerge, ptr %0, align 8
  br label %24

24:                                               ; preds = %1, %23, %21, %19
  %.0 = phi i32 [ -1, %21 ], [ -1, %19 ], [ 0, %23 ], [ -1, %1 ]
  call void @llvm.lifetime.end.p0(i64 424, ptr nonnull %3) #9
  call void @llvm.lifetime.end.p0(i64 424, ptr nonnull %2) #9
  ret i32 %.0
}